; Function Attrs: nounwind sspstrong uwtable
define dso_local void @tcg_gen_xor_vec(i32 noundef %vece, ptr noundef %r, ptr noundef %a, ptr noundef %b) local_unnamed_addr #0 {
entry:
  %0 = tail call align 8 ptr @llvm.threadlocal.address.p0(ptr align 8 @tcg_ctx)
  %1 = load ptr, ptr %0, align 8
  %2 = ptrtoint ptr %r to i64
  %add.ptr.i.i.i = getelementptr i8, ptr %1, i64 %2
  %3 = ptrtoint ptr %a to i64
  %add.ptr.i.i6.i = getelementptr i8, ptr %1, i64 %3
  %4 = ptrtoint ptr %b to i64
  %add.ptr.i.i7.i = getelementptr i8, ptr %1, i64 %4
  %bf.load.i = load i64, ptr %add.ptr.i.i.i, align 8
  %5 = trunc i64 %bf.load.i to i32
  %6 = lshr i32 %5, 16
  %bf.cast.i = and i32 %6, 255
  %bf.load3.i = load i64, ptr %add.ptr.i.i6.i, align 8
  %7 = trunc i64 %bf.load3.i to i32
  %8 = lshr i32 %7, 16
  %bf.cast6.i = and i32 %8, 255
  %cmp.i = icmp samesign uge i32 %bf.cast6.i, %bf.cast.i
  tail call void @llvm.assume(i1 %cmp.i)
  %bf.load8.i = load i64, ptr %add.ptr.i.i7.i, align 8
  %9 = trunc i64 %bf.load8.i to i32
  %10 = lshr i32 %9, 16
  %bf.cast11.i = and i32 %10, 255
  %cmp12.i = icmp samesign uge i32 %bf.cast11.i, %bf.cast.i
  tail call void @llvm.assume(i1 %cmp12.i)
  %11 = ptrtoint ptr %add.ptr.i.i.i to i64
  %12 = ptrtoint ptr %add.ptr.i.i6.i to i64
  %13 = ptrtoint ptr %add.ptr.i.i7.i to i64
  %call.i.i = tail call ptr @tcg_emit_op(i32 noundef 170, i32 noundef 3) #5
  %bf.load.i.i = load i32, ptr %call.i.i, align 8
  %sub.i.i = shl nuw nsw i32 %bf.cast.i, 16
  %bf.value.i.i = add nuw nsw i32 %sub.i.i, 16580608
  %bf.clear.i.i = and i32 %bf.load.i.i, 65535
  %bf.value.masked.i.i = and i32 %bf.value.i.i, 16711680
  %bf.clear4.i.i = or disjoint i32 %bf.clear.i.i, %bf.value.masked.i.i
  store i32 %bf.clear4.i.i, ptr %call.i.i, align 8
  %args.i.i = getelementptr inbounds nuw i8, ptr %call.i.i, i64 32
  store i64 %11, ptr %args.i.i, align 8
  %arrayidx7.i.i = getelementptr i8, ptr %call.i.i, i64 40
  store i64 %12, ptr %arrayidx7.i.i, align 8
  %arrayidx9.i.i = getelementptr i8, ptr %call.i.i, i64 48
  store i64 %13, ptr %arrayidx9.i.i, align 8
  ret void
}